target datalayout = "e-m:e-p270:32:32-p271:32:32-p272:64:64-i64:64-i128:128-f80:128-n8:16:32:64-S128"
target triple = "x86_64-pc-linux-gnu"

%struct.grep_pat = type { ptr, ptr, i32, i32, ptr, i64, i32, %struct.re_pattern_buffer, ptr, ptr, ptr, ptr, ptr, i32, i8 }
%struct.re_pattern_buffer = type { ptr, i64, i64, i64, ptr, ptr, i64, i8 }
%struct.regmatch_t = type { i32, i32 }

@sane_ctype = external constant [256 x i8], align 16
@.str.45 = private unnamed_addr constant [25 x i8] c"regexp returned nonsense\00", align 1

; Function Attrs: inlinehint nounwind uwtable
define internal i32 @regexec_buf(ptr noundef %0, ptr noundef %1, i64 noundef %2, i64 noundef %3, ptr noundef %4, i32 noundef %5) #2 {
  %7 = alloca ptr, align 8
  %8 = alloca ptr, align 8
  %9 = alloca i64, align 8
  %10 = alloca i64, align 8
  %11 = alloca ptr, align 8
  %12 = alloca i32, align 4
  store ptr %0, ptr %7, align 8, !tbaa !145
  store ptr %1, ptr %8, align 8, !tbaa !9
  store i64 %2, ptr %9, align 8, !tbaa !11
  store i64 %3, ptr %10, align 8, !tbaa !11
  store ptr %4, ptr %11, align 8, !tbaa !18
  store i32 %5, ptr %12, align 4, !tbaa !33
  %13 = load ptr, ptr %11, align 8, !tbaa !18
  %14 = getelementptr inbounds %struct.regmatch_t, ptr %13, i64 0
  %15 = getelementptr inbounds nuw %struct.regmatch_t, ptr %14, i32 0, i32 0
  store i32 0, ptr %15, align 4, !tbaa !83
  %16 = load i64, ptr %9, align 8, !tbaa !11
  %17 = trunc i64 %16 to i32
  %18 = load ptr, ptr %11, align 8, !tbaa !18
  %19 = getelementptr inbounds %struct.regmatch_t, ptr %18, i64 0
  %20 = getelementptr inbounds nuw %struct.regmatch_t, ptr %19, i32 0, i32 1
  store i32 %17, ptr %20, align 4, !tbaa !81
  %21 = load ptr, ptr %7, align 8, !tbaa !145
  %22 = load ptr, ptr %8, align 8, !tbaa !9
  %23 = load i64, ptr %10, align 8, !tbaa !11
  %24 = load ptr, ptr %11, align 8, !tbaa !18
  %25 = load i32, ptr %12, align 4, !tbaa !33
  %26 = or i32 %25, 4
  %27 = call i32 @regexec(ptr noundef %21, ptr noundef %22, i64 noundef %23, ptr noundef %24, i32 noundef %26)
  ret i32 %27
}

; Function Attrs: nounwind uwtable
define internal i32 @pcre2match(ptr noundef %0, ptr noundef %1, ptr noundef %2, ptr noundef %3, i32 noundef %4) #0 {
  %6 = alloca ptr, align 8
  %7 = alloca ptr, align 8
  %8 = alloca ptr, align 8
  %9 = alloca ptr, align 8
  %10 = alloca i32, align 4
  store ptr %0, ptr %6, align 8, !tbaa !44
  store ptr %1, ptr %7, align 8, !tbaa !9
  store ptr %2, ptr %8, align 8, !tbaa !9
  store ptr %3, ptr %9, align 8, !tbaa !18
  store i32 %4, ptr %10, align 4, !tbaa !33
  ret i32 1
}

; Function Attrs: nounwind uwtable
define internal i32 @word_char(i8 noundef signext %0) #0 {
  %2 = alloca i8, align 1
  store i8 %0, ptr %2, align 1, !tbaa !36
  %3 = load i8, ptr %2, align 1, !tbaa !36
  %4 = zext i8 %3 to i64
  %5 = getelementptr inbounds nuw [256 x i8], ptr @sane_ctype, i64 0, i64 %4
  %6 = load i8, ptr %5, align 1, !tbaa !36
  %7 = zext i8 %6 to i32
  %8 = and i32 %7, 6
  %9 = icmp ne i32 %8, 0
  br i1 %9, label %14, label %10

10:                                               ; preds = %1
  %11 = load i8, ptr %2, align 1, !tbaa !36
  %12 = sext i8 %11 to i32
  %13 = icmp eq i32 %12, 95
  br label %14

14:                                               ; preds = %10, %1
  %15 = phi i1 [ true, %1 ], [ %13, %10 ]
  %16 = zext i1 %15 to i32
  ret i32 %16
}

; Function Attrs: nounwind uwtable
define internal i32 @patmatch(ptr noundef %0, ptr noundef %1, ptr noundef %2, ptr noundef %3, i32 noundef %4) #0 {
  %6 = alloca i32, align 4
  %7 = alloca ptr, align 8
  %8 = alloca ptr, align 8
  %9 = alloca ptr, align 8
  %10 = alloca ptr, align 8
  %11 = alloca i32, align 4
  store ptr %0, ptr %7, align 8, !tbaa !44
  store ptr %1, ptr %8, align 8, !tbaa !9
  store ptr %2, ptr %9, align 8, !tbaa !9
  store ptr %3, ptr %10, align 8, !tbaa !18
  store i32 %4, ptr %11, align 4, !tbaa !33
  %12 = load ptr, ptr %7, align 8, !tbaa !44
  %13 = getelementptr inbounds nuw %struct.grep_pat, ptr %12, i32 0, i32 8
  %14 = load ptr, ptr %13, align 8, !tbaa !79
  %15 = icmp ne ptr %14, null
  br i1 %15, label %16, label %26

16:                                               ; preds = %5
  %17 = load ptr, ptr %7, align 8, !tbaa !44
  %18 = load ptr, ptr %8, align 8, !tbaa !9
  %19 = load ptr, ptr %9, align 8, !tbaa !9
  %20 = load ptr, ptr %10, align 8, !tbaa !18
  %21 = load i32, ptr %11, align 4, !tbaa !33
  %22 = call i32 @pcre2match(ptr noundef %17, ptr noundef %18, ptr noundef %19, ptr noundef %20, i32 noundef %21)
  %23 = icmp ne i32 %22, 0
  %24 = xor i1 %23, true
  %25 = zext i1 %24 to i32
  store i32 %25, ptr %6, align 4
  br label %41

26:                                               ; preds = %5
  %27 = load ptr, ptr %7, align 8, !tbaa !44
  %28 = getelementptr inbounds nuw %struct.grep_pat, ptr %27, i32 0, i32 7
  %29 = load ptr, ptr %8, align 8, !tbaa !9
  %30 = load ptr, ptr %9, align 8, !tbaa !9
  %31 = load ptr, ptr %8, align 8, !tbaa !9
  %32 = ptrtoint ptr %30 to i64
  %33 = ptrtoint ptr %31 to i64
  %34 = sub i64 %32, %33
  %35 = load ptr, ptr %10, align 8, !tbaa !18
  %36 = load i32, ptr %11, align 4, !tbaa !33
  %37 = call i32 @regexec_buf(ptr noundef %28, ptr noundef %29, i64 noundef %34, i64 noundef 1, ptr noundef %35, i32 noundef %36)
  switch i32 %37, label %40 [
    i32 0, label %38
    i32 1, label %39
  ]

38:                                               ; preds = %26
  store i32 1, ptr %6, align 4
  br label %41

39:                                               ; preds = %26
  store i32 0, ptr %6, align 4
  br label %41

40:                                               ; preds = %26
  store i32 -1, ptr %6, align 4
  br label %41

41:                                               ; preds = %40, %39, %38, %16
  %42 = load i32, ptr %6, align 4
  ret i32 %42
}

; Function Attrs: nounwind uwtable
define internal i32 @headerless_match_one_pattern(ptr noundef %0, ptr noundef %1, ptr noundef %2, i32 noundef %3, ptr noundef %4, i32 noundef %5) #0 {
  %7 = alloca i32, align 4
  %8 = alloca ptr, align 8
  %9 = alloca ptr, align 8
  %10 = alloca ptr, align 8
  %11 = alloca i32, align 4
  %12 = alloca ptr, align 8
  %13 = alloca i32, align 4
  %14 = alloca i32, align 4
  %15 = alloca ptr, align 8
  %16 = alloca i32, align 4
  store ptr %0, ptr %8, align 8, !tbaa !44
  store ptr %1, ptr %9, align 8, !tbaa !9
  store ptr %2, ptr %10, align 8, !tbaa !9
  store i32 %3, ptr %11, align 4, !tbaa !33
  store ptr %4, ptr %12, align 8, !tbaa !18
  store i32 %5, ptr %13, align 4, !tbaa !33
  call void @llvm.lifetime.start.p0(i64 4, ptr %14) #11
  store i32 0, ptr %14, align 4, !tbaa !33
  call void @llvm.lifetime.start.p0(i64 8, ptr %15) #11
  %17 = load ptr, ptr %9, align 8, !tbaa !9
  store ptr %17, ptr %15, align 8, !tbaa !9
  %18 = load ptr, ptr %8, align 8, !tbaa !44
  %19 = getelementptr inbounds nuw %struct.grep_pat, ptr %18, i32 0, i32 3
  %20 = load i32, ptr %19, align 4, !tbaa !54
  %21 = icmp ne i32 %20, 0
  br i1 %21, label %22, label %33

22:                                               ; preds = %6
  %23 = load ptr, ptr %8, align 8, !tbaa !44
  %24 = getelementptr inbounds nuw %struct.grep_pat, ptr %23, i32 0, i32 3
  %25 = load i32, ptr %24, align 4, !tbaa !54
  %26 = icmp eq i32 %25, 1
  %27 = zext i1 %26 to i32
  %28 = load i32, ptr %11, align 4, !tbaa !33
  %29 = icmp eq i32 %28, 0
  %30 = zext i1 %29 to i32
  %31 = icmp ne i32 %27, %30
  br i1 %31, label %32, label %33

32:                                               ; preds = %22
  store i32 0, ptr %7, align 4
  store i32 1, ptr %16, align 4
  br label %221

33:                                               ; preds = %22, %6
  br label %34

34:                                               ; preds = %188, %33
  %35 = load ptr, ptr %8, align 8, !tbaa !44
  %36 = load ptr, ptr %9, align 8, !tbaa !9
  %37 = load ptr, ptr %10, align 8, !tbaa !9
  %38 = load ptr, ptr %12, align 8, !tbaa !18
  %39 = load i32, ptr %13, align 4, !tbaa !33
  %40 = call i32 @patmatch(ptr noundef %35, ptr noundef %36, ptr noundef %37, ptr noundef %38, i32 noundef %39)
  store i32 %40, ptr %14, align 4, !tbaa !33
  %41 = load i32, ptr %14, align 4, !tbaa !33
  %42 = icmp slt i32 %41, 0
  br i1 %42, label %43, label %44

43:                                               ; preds = %34
  store i32 0, ptr %14, align 4, !tbaa !33
  br label %44

44:                                               ; preds = %43, %34
  %45 = load i32, ptr %14, align 4, !tbaa !33
  %46 = icmp ne i32 %45, 0
  br i1 %46, label %47, label %191

47:                                               ; preds = %44
  %48 = load ptr, ptr %8, align 8, !tbaa !44
  %49 = getelementptr inbounds nuw %struct.grep_pat, ptr %48, i32 0, i32 14
  %50 = load i8, ptr %49, align 4
  %51 = lshr i8 %50, 3
  %52 = and i8 %51, 1
  %53 = zext i8 %52 to i32
  %54 = icmp ne i32 %53, 0
  br i1 %54, label %55, label %191

55:                                               ; preds = %47
  %56 = load ptr, ptr %12, align 8, !tbaa !18
  %57 = getelementptr inbounds %struct.regmatch_t, ptr %56, i64 0
  %58 = getelementptr inbounds nuw %struct.regmatch_t, ptr %57, i32 0, i32 0
  %59 = load i32, ptr %58, align 4, !tbaa !83
  %60 = icmp slt i32 %59, 0
  br i1 %60, label %91, label %61

61:                                               ; preds = %55
  %62 = load ptr, ptr %10, align 8, !tbaa !9
  %63 = load ptr, ptr %9, align 8, !tbaa !9
  %64 = ptrtoint ptr %62 to i64
  %65 = ptrtoint ptr %63 to i64
  %66 = sub i64 %64, %65
  %67 = load ptr, ptr %12, align 8, !tbaa !18
  %68 = getelementptr inbounds %struct.regmatch_t, ptr %67, i64 0
  %69 = getelementptr inbounds nuw %struct.regmatch_t, ptr %68, i32 0, i32 0
  %70 = load i32, ptr %69, align 4, !tbaa !83
  %71 = sext i32 %70 to i64
  %72 = icmp slt i64 %66, %71
  br i1 %72, label %91, label %73

73:                                               ; preds = %61
  %74 = load ptr, ptr %12, align 8, !tbaa !18
  %75 = getelementptr inbounds %struct.regmatch_t, ptr %74, i64 0
  %76 = getelementptr inbounds nuw %struct.regmatch_t, ptr %75, i32 0, i32 1
  %77 = load i32, ptr %76, align 4, !tbaa !81
  %78 = icmp slt i32 %77, 0
  br i1 %78, label %91, label %79

79:                                               ; preds = %73
  %80 = load ptr, ptr %10, align 8, !tbaa !9
  %81 = load ptr, ptr %9, align 8, !tbaa !9
  %82 = ptrtoint ptr %80 to i64
  %83 = ptrtoint ptr %81 to i64
  %84 = sub i64 %82, %83
  %85 = load ptr, ptr %12, align 8, !tbaa !18
  %86 = getelementptr inbounds %struct.regmatch_t, ptr %85, i64 0
  %87 = getelementptr inbounds nuw %struct.regmatch_t, ptr %86, i32 0, i32 1
  %88 = load i32, ptr %87, align 4, !tbaa !81
  %89 = sext i32 %88 to i64
  %90 = icmp slt i64 %84, %89
  br i1 %90, label %91, label %92

91:                                               ; preds = %79, %73, %61, %55
  call void (ptr, ...) @die(ptr noundef @.str.45) #13
  unreachable

92:                                               ; preds = %79
  %93 = load ptr, ptr %12, align 8, !tbaa !18
  %94 = getelementptr inbounds %struct.regmatch_t, ptr %93, i64 0
  %95 = getelementptr inbounds nuw %struct.regmatch_t, ptr %94, i32 0, i32 0
  %96 = load i32, ptr %95, align 4, !tbaa !83
  %97 = icmp eq i32 %96, 0
  br i1 %97, label %110, label %98

98:                                               ; preds = %92
  %99 = load ptr, ptr %9, align 8, !tbaa !9
  %100 = load ptr, ptr %12, align 8, !tbaa !18
  %101 = getelementptr inbounds %struct.regmatch_t, ptr %100, i64 0
  %102 = getelementptr inbounds nuw %struct.regmatch_t, ptr %101, i32 0, i32 0
  %103 = load i32, ptr %102, align 4, !tbaa !83
  %104 = sub nsw i32 %103, 1
  %105 = sext i32 %104 to i64
  %106 = getelementptr inbounds i8, ptr %99, i64 %105
  %107 = load i8, ptr %106, align 1, !tbaa !36
  %108 = call i32 @word_char(i8 noundef signext %107)
  %109 = icmp ne i32 %108, 0
  br i1 %109, label %134, label %110

110:                                              ; preds = %98, %92
  %111 = load ptr, ptr %12, align 8, !tbaa !18
  %112 = getelementptr inbounds %struct.regmatch_t, ptr %111, i64 0
  %113 = getelementptr inbounds nuw %struct.regmatch_t, ptr %112, i32 0, i32 1
  %114 = load i32, ptr %113, align 4, !tbaa !81
  %115 = sext i32 %114 to i64
  %116 = load ptr, ptr %10, align 8, !tbaa !9
  %117 = load ptr, ptr %9, align 8, !tbaa !9
  %118 = ptrtoint ptr %116 to i64
  %119 = ptrtoint ptr %117 to i64
  %120 = sub i64 %118, %119
  %121 = icmp eq i64 %115, %120
  br i1 %121, label %133, label %122

122:                                              ; preds = %110
  %123 = load ptr, ptr %9, align 8, !tbaa !9
  %124 = load ptr, ptr %12, align 8, !tbaa !18
  %125 = getelementptr inbounds %struct.regmatch_t, ptr %124, i64 0
  %126 = getelementptr inbounds nuw %struct.regmatch_t, ptr %125, i32 0, i32 1
  %127 = load i32, ptr %126, align 4, !tbaa !81
  %128 = sext i32 %127 to i64
  %129 = getelementptr inbounds i8, ptr %123, i64 %128
  %130 = load i8, ptr %129, align 1, !tbaa !36
  %131 = call i32 @word_char(i8 noundef signext %130)
  %132 = icmp ne i32 %131, 0
  br i1 %132, label %134, label %133

133:                                              ; preds = %122, %110
  br label %135

134:                                              ; preds = %122, %98
  store i32 0, ptr %14, align 4, !tbaa !33
  br label %135

135:                                              ; preds = %134, %133
  %136 = load ptr, ptr %12, align 8, !tbaa !18
  %137 = getelementptr inbounds nuw %struct.regmatch_t, ptr %136, i32 0, i32 0
  %138 = load i32, ptr %137, align 4, !tbaa !83
  %139 = load ptr, ptr %12, align 8, !tbaa !18
  %140 = getelementptr inbounds nuw %struct.regmatch_t, ptr %139, i32 0, i32 1
  %141 = load i32, ptr %140, align 4, !tbaa !81
  %142 = icmp eq i32 %138, %141
  br i1 %142, label %143, label %144

143:                                              ; preds = %135
  store i32 0, ptr %14, align 4, !tbaa !33
  br label %144

144:                                              ; preds = %143, %135
  %145 = load i32, ptr %14, align 4, !tbaa !33
  %146 = icmp ne i32 %145, 0
  br i1 %146, label %190, label %147

147:                                              ; preds = %144
  %148 = load ptr, ptr %12, align 8, !tbaa !18
  %149 = getelementptr inbounds %struct.regmatch_t, ptr %148, i64 0
  %150 = getelementptr inbounds nuw %struct.regmatch_t, ptr %149, i32 0, i32 0
  %151 = load i32, ptr %150, align 4, !tbaa !83
  %152 = load ptr, ptr %9, align 8, !tbaa !9
  %153 = sext i32 %151 to i64
  %154 = getelementptr inbounds i8, ptr %152, i64 %153
  %155 = getelementptr inbounds i8, ptr %154, i64 1
  %156 = load ptr, ptr %10, align 8, !tbaa !9
  %157 = icmp ult ptr %155, %156
  br i1 %157, label %158, label %190

158:                                              ; preds = %147
  %159 = load ptr, ptr %12, align 8, !tbaa !18
  %160 = getelementptr inbounds %struct.regmatch_t, ptr %159, i64 0
  %161 = getelementptr inbounds nuw %struct.regmatch_t, ptr %160, i32 0, i32 0
  %162 = load i32, ptr %161, align 4, !tbaa !83
  %163 = load ptr, ptr %9, align 8, !tbaa !9
  %164 = sext i32 %162 to i64
  %165 = getelementptr inbounds i8, ptr %163, i64 %164
  %166 = getelementptr inbounds i8, ptr %165, i64 1
  store ptr %166, ptr %9, align 8, !tbaa !9
  br label %167

167:                                              ; preds = %179, %158
  %168 = load ptr, ptr %9, align 8, !tbaa !9
  %169 = getelementptr inbounds i8, ptr %168, i64 -1
  %170 = load i8, ptr %169, align 1, !tbaa !36
  %171 = call i32 @word_char(i8 noundef signext %170)
  %172 = icmp ne i32 %171, 0
  br i1 %172, label %173, label %177

173:                                              ; preds = %167
  %174 = load ptr, ptr %9, align 8, !tbaa !9
  %175 = load ptr, ptr %10, align 8, !tbaa !9
  %176 = icmp ult ptr %174, %175
  br label %177

177:                                              ; preds = %173, %167
  %178 = phi i1 [ false, %167 ], [ %176, %173 ]
  br i1 %178, label %179, label %182

179:                                              ; preds = %177
  %180 = load ptr, ptr %9, align 8, !tbaa !9
  %181 = getelementptr inbounds nuw i8, ptr %180, i32 1
  store ptr %181, ptr %9, align 8, !tbaa !9
  br label %167, !llvm.loop !144

182:                                              ; preds = %177
  %183 = load i32, ptr %13, align 4, !tbaa !33
  %184 = or i32 %183, 1
  store i32 %184, ptr %13, align 4, !tbaa !33
  %185 = load ptr, ptr %9, align 8, !tbaa !9
  %186 = load ptr, ptr %10, align 8, !tbaa !9
  %187 = icmp ult ptr %185, %186
  br i1 %187, label %188, label %189

188:                                              ; preds = %182
  br label %34

189:                                              ; preds = %182
  br label %190

190:                                              ; preds = %189, %147, %144
  br label %191

191:                                              ; preds = %190, %47, %44
  %192 = load i32, ptr %14, align 4, !tbaa !33
  %193 = icmp ne i32 %192, 0
  br i1 %193, label %194, label %219

194:                                              ; preds = %191
  %195 = load ptr, ptr %9, align 8, !tbaa !9
  %196 = load ptr, ptr %15, align 8, !tbaa !9
  %197 = ptrtoint ptr %195 to i64
  %198 = ptrtoint ptr %196 to i64
  %199 = sub i64 %197, %198
  %200 = load ptr, ptr %12, align 8, !tbaa !18
  %201 = getelementptr inbounds %struct.regmatch_t, ptr %200, i64 0
  %202 = getelementptr inbounds nuw %struct.regmatch_t, ptr %201, i32 0, i32 0
  %203 = load i32, ptr %202, align 4, !tbaa !83
  %204 = sext i32 %203 to i64
  %205 = add nsw i64 %204, %199
  %206 = trunc i64 %205 to i32
  store i32 %206, ptr %202, align 4, !tbaa !83
  %207 = load ptr, ptr %9, align 8, !tbaa !9
  %208 = load ptr, ptr %15, align 8, !tbaa !9
  %209 = ptrtoint ptr %207 to i64
  %210 = ptrtoint ptr %208 to i64
  %211 = sub i64 %209, %210
  %212 = load ptr, ptr %12, align 8, !tbaa !18
  %213 = getelementptr inbounds %struct.regmatch_t, ptr %212, i64 0
  %214 = getelementptr inbounds nuw %struct.regmatch_t, ptr %213, i32 0, i32 1
  %215 = load i32, ptr %214, align 4, !tbaa !81
  %216 = sext i32 %215 to i64
  %217 = add nsw i64 %216, %211
  %218 = trunc i64 %217 to i32
  store i32 %218, ptr %214, align 4, !tbaa !81
  br label %219

219:                                              ; preds = %194, %191
  %220 = load i32, ptr %14, align 4, !tbaa !33
  store i32 %220, ptr %7, align 4
  store i32 1, ptr %16, align 4
  br label %221

221:                                              ; preds = %219, %32
  call void @llvm.lifetime.end.p0(i64 8, ptr %15) #11
  call void @llvm.lifetime.end.p0(i64 4, ptr %14) #11
  %222 = load i32, ptr %7, align 4
  ret i32 %222
}