; Function Attrs: nounwind uwtable
define internal fastcc range(i32 0, 2) i32 @headerless_match_one_pattern(ptr noundef %0, ptr noundef %1, ptr noundef %2, i32 noundef %3, ptr noundef nonnull %4, i32 noundef %5) unnamed_addr #0 {
  %7 = getelementptr inbounds nuw i8, ptr %0, i64 20
  %8 = load i32, ptr %7, align 4, !tbaa !39
  %.not = icmp eq i32 %8, 0
  br i1 %.not, label %12, label %9

9:                                                ; preds = %6
  %10 = icmp eq i32 %8, 1
  %11 = icmp ne i32 %3, 0
  %.not63 = xor i1 %11, %10
  br i1 %.not63, label %12, label %.thread

12:                                               ; preds = %9, %6
  %13 = getelementptr inbounds nuw i8, ptr %0, i64 112
  %14 = getelementptr inbounds nuw i8, ptr %0, i64 48
  %15 = ptrtoint ptr %2 to i64
  %16 = getelementptr inbounds nuw i8, ptr %4, i64 4
  %17 = getelementptr inbounds nuw i8, ptr %0, i64 156
  %18 = or i32 %5, 1
  br label %19

19:                                               ; preds = %81, %12
  %.053 = phi ptr [ %1, %12 ], [ %.255, %81 ]
  %.052 = phi i32 [ %5, %12 ], [ %18, %81 ]
  %20 = load ptr, ptr %13, align 8, !tbaa !68
  %.not.i = icmp eq ptr %20, null
  br i1 %.not.i, label %21, label %.thread

21:                                               ; preds = %19
  %22 = ptrtoint ptr %.053 to i64
  %23 = sub i64 %15, %22
  store i32 0, ptr %4, align 4, !tbaa !72
  %24 = trunc i64 %23 to i32
  store i32 %24, ptr %16, align 4, !tbaa !70
  %25 = or i32 %.052, 4
  %26 = tail call i32 @regexec(ptr noundef nonnull %14, ptr noundef %.053, i64 noundef 1, ptr noundef nonnull %4, i32 noundef %25) #18
  %switch.selectcmp12.i = icmp eq i32 %26, 0
  br i1 %switch.selectcmp12.i, label %27, label %.thread

27:                                               ; preds = %21
  %28 = load i8, ptr %17, align 4
  %29 = and i8 %28, 8
  %.not65 = icmp eq i8 %29, 0
  %.pre = load i32, ptr %4, align 4, !tbaa !72
  br i1 %.not65, label %._crit_edge, label %30

._crit_edge:                                      ; preds = %27
  %.pre88 = load i32, ptr %16, align 4, !tbaa !70
  br label %split

30:                                               ; preds = %27
  %31 = icmp slt i32 %.pre, 0
  br i1 %31, label %40, label %32

32:                                               ; preds = %30
  %33 = zext nneg i32 %.pre to i64
  %34 = icmp slt i64 %23, %33
  br i1 %34, label %40, label %35

35:                                               ; preds = %32
  %36 = load i32, ptr %16, align 4, !tbaa !70
  %37 = icmp slt i32 %36, 0
  %38 = zext nneg i32 %36 to i64
  %39 = icmp samesign ult i64 %23, %38
  %or.cond = select i1 %37, i1 true, i1 %39
  br i1 %or.cond, label %40, label %41

40:                                               ; preds = %35, %32, %30
  tail call void (ptr, ...) @die(ptr noundef nonnull @.str.45) #20
  unreachable

41:                                               ; preds = %35
  %42 = icmp eq i32 %.pre, 0
  br i1 %42, label %53, label %43

43:                                               ; preds = %41
  %44 = getelementptr i8, ptr %.053, i64 %33
  %45 = getelementptr i8, ptr %44, i64 -1
  %46 = load i8, ptr %45, align 1, !tbaa !23
  %47 = zext i8 %46 to i64
  %48 = getelementptr inbounds nuw [256 x i8], ptr @sane_ctype, i64 0, i64 %47
  %49 = load i8, ptr %48, align 1, !tbaa !23
  %50 = and i8 %49, 6
  %51 = icmp eq i8 %50, 0
  %52 = icmp ne i8 %46, 95
  %.not79 = and i1 %52, %51
  br i1 %.not79, label %53, label %.thread89

53:                                               ; preds = %43, %41
  %54 = icmp eq i64 %23, %38
  br i1 %54, label %65, label %55

55:                                               ; preds = %53
  %56 = getelementptr inbounds nuw i8, ptr %.053, i64 %38
  %57 = load i8, ptr %56, align 1, !tbaa !23
  %58 = zext i8 %57 to i64
  %59 = getelementptr inbounds nuw [256 x i8], ptr @sane_ctype, i64 0, i64 %58
  %60 = load i8, ptr %59, align 1, !tbaa !23
  %61 = and i8 %60, 6
  %62 = icmp ne i8 %61, 0
  %63 = icmp eq i8 %57, 95
  %.not82.not102 = or i1 %63, %62
  %64 = icmp eq i32 %.pre, %36
  %or.cond99 = select i1 %.not82.not102, i1 true, i1 %64
  br i1 %or.cond99, label %.thread89, label %split

65:                                               ; preds = %53
  %.old = icmp eq i32 %.pre, %36
  br i1 %.old, label %.thread89, label %split

.thread89:                                        ; preds = %55, %43, %65
  %66 = getelementptr inbounds nuw i8, ptr %.053, i64 %33
  %67 = getelementptr inbounds nuw i8, ptr %66, i64 1
  %68 = icmp ult ptr %67, %2
  br i1 %68, label %.preheader, label %.thread

.preheader:                                       ; preds = %.thread89, %.preheader
  %.255 = phi ptr [ %80, %.preheader ], [ %67, %.thread89 ]
  %69 = getelementptr inbounds i8, ptr %.255, i64 -1
  %70 = load i8, ptr %69, align 1, !tbaa !23
  %71 = zext i8 %70 to i64
  %72 = getelementptr inbounds nuw [256 x i8], ptr @sane_ctype, i64 0, i64 %71
  %73 = load i8, ptr %72, align 1, !tbaa !23
  %74 = and i8 %73, 6
  %75 = icmp ne i8 %74, 0
  %76 = icmp eq i8 %70, 95
  %77 = or i1 %76, %75
  %78 = icmp ult ptr %.255, %2
  %79 = and i1 %78, %77
  %80 = getelementptr inbounds nuw i8, ptr %.255, i64 1
  br i1 %79, label %.preheader, label %81, !llvm.loop !143

81:                                               ; preds = %.preheader
  br i1 %78, label %19, label %.thread

split:                                            ; preds = %65, %55, %._crit_edge
  %82 = phi i32 [ %.pre88, %._crit_edge ], [ %36, %55 ], [ %36, %65 ]
  %83 = ptrtoint ptr %1 to i64
  %84 = sub i64 %22, %83
  %85 = trunc i64 %84 to i32
  %86 = add i32 %.pre, %85
  store i32 %86, ptr %4, align 4, !tbaa !72
  %87 = add i32 %82, %85
  store i32 %87, ptr %16, align 4, !tbaa !70
  br label %.thread

.thread:                                          ; preds = %19, %21, %.thread89, %81, %split, %9
  %.0 = phi i32 [ 0, %9 ], [ 1, %split ], [ 0, %81 ], [ 0, %.thread89 ], [ 0, %21 ], [ 0, %19 ]
  ret i32 %.0
}